; Function Attrs: mustprogress uwtable
define internal noundef zeroext i1 @_ZN12_GLOBAL__N_118HandleStripCommandERKSt6vectorINSt7__cxx1112basic_stringIcSt11char_traitsIcESaIcEEESaIS6_EER17cmExecutionStatus(ptr nocapture noundef nonnull readonly align 8 dereferenceable(24) %0, ptr noundef nonnull align 8 dereferenceable(80) %1) #3 personality ptr @__gxx_personality_v0 {
  %3 = alloca %"class.std::__cxx11::basic_string", align 8
  %4 = alloca %"class.std::allocator.0", align 1
  %5 = alloca %"class.std::__cxx11::basic_string", align 8
  %6 = getelementptr inbounds i8, ptr %0, i64 8
  %7 = load ptr, ptr %6, align 8
  %8 = load ptr, ptr %0, align 8
  %9 = ptrtoint ptr %7 to i64
  %10 = ptrtoint ptr %8 to i64
  %11 = sub i64 %9, %10
  %.not = icmp eq i64 %11, 96
  br i1 %.not, label %22, label %12

12:                                               ; preds = %2
  call void @_ZNSaIcEC1Ev(ptr noundef nonnull align 1 dereferenceable(1) %4) #20
  %13 = invoke noundef ptr @_ZNSt7__cxx1112basic_stringIcSt11char_traitsIcESaIcEE13_M_local_dataEv(ptr noundef nonnull align 8 dereferenceable(32) %3)
          to label %.noexc unwind label %18

.noexc:                                           ; preds = %12
  invoke void @_ZNSt7__cxx1112basic_stringIcSt11char_traitsIcESaIcEE12_Alloc_hiderC1EPcRKS3_(ptr noundef nonnull align 8 dereferenceable(8) %3, ptr noundef %13, ptr noundef nonnull align 1 dereferenceable(1) %4)
          to label %.noexc41 unwind label %18

.noexc41:                                         ; preds = %.noexc
  invoke void @_ZNSt7__cxx1112basic_stringIcSt11char_traitsIcESaIcEE12_M_constructIPKcEEvT_S8_St20forward_iterator_tag(ptr noundef nonnull align 8 dereferenceable(32) %3, ptr noundef nonnull @.str.88, ptr noundef nonnull getelementptr inbounds ([42 x i8], ptr @.str.88, i64 0, i64 41))
          to label %_ZNSt7__cxx1112basic_stringIcSt11char_traitsIcESaIcEEC2IS3_EEPKcRKS3_.exit unwind label %14

14:                                               ; preds = %.noexc41
  %15 = landingpad { ptr, i32 }
          cleanup
  call void @_ZNSaIcED2Ev(ptr noundef nonnull align 1 dereferenceable(1) %3) #20
  br label %.body

_ZNSt7__cxx1112basic_stringIcSt11char_traitsIcESaIcEEC2IS3_EEPKcRKS3_.exit: ; preds = %.noexc41
  %16 = getelementptr inbounds i8, ptr %1, i64 8
  %17 = invoke noundef nonnull align 8 dereferenceable(32) ptr @_ZNSt7__cxx1112basic_stringIcSt11char_traitsIcESaIcEEaSERKS4_(ptr noundef nonnull align 8 dereferenceable(32) %16, ptr noundef nonnull align 8 dereferenceable(32) %3)
          to label %_ZN17cmExecutionStatus8SetErrorERKNSt7__cxx1112basic_stringIcSt11char_traitsIcESaIcEEE.exit unwind label %20

_ZN17cmExecutionStatus8SetErrorERKNSt7__cxx1112basic_stringIcSt11char_traitsIcESaIcEEE.exit: ; preds = %_ZNSt7__cxx1112basic_stringIcSt11char_traitsIcESaIcEEC2IS3_EEPKcRKS3_.exit
  call void @_ZNSt7__cxx1112basic_stringIcSt11char_traitsIcESaIcEED1Ev(ptr noundef nonnull align 8 dereferenceable(32) %3) #20
  call void @_ZNSaIcED1Ev(ptr noundef nonnull align 1 dereferenceable(1) %4) #20
  br label %44

18:                                               ; preds = %.noexc, %12
  %19 = landingpad { ptr, i32 }
          cleanup
  br label %.body

20:                                               ; preds = %_ZNSt7__cxx1112basic_stringIcSt11char_traitsIcESaIcEEC2IS3_EEPKcRKS3_.exit
  %21 = landingpad { ptr, i32 }
          cleanup
  call void @_ZNSt7__cxx1112basic_stringIcSt11char_traitsIcESaIcEED1Ev(ptr noundef nonnull align 8 dereferenceable(32) %3) #20
  br label %.body

.body:                                            ; preds = %18, %14, %20
  %.pn = phi { ptr, i32 } [ %21, %20 ], [ %19, %18 ], [ %15, %14 ]
  call void @_ZNSaIcED1Ev(ptr noundef nonnull align 1 dereferenceable(1) %4) #20
  br label %45

22:                                               ; preds = %2
  %23 = getelementptr inbounds i8, ptr %8, i64 32
  %24 = getelementptr inbounds i8, ptr %8, i64 64
  %25 = tail call noundef i64 @_ZNKSt7__cxx1112basic_stringIcSt11char_traitsIcESaIcEE4sizeEv(ptr noundef nonnull align 8 dereferenceable(32) %23) #20
  %26 = tail call noundef ptr @_ZNKSt7__cxx1112basic_stringIcSt11char_traitsIcESaIcEE5c_strEv(ptr noundef nonnull align 8 dereferenceable(32) %23) #20
  %.not49 = icmp eq i64 %25, 0
  br i1 %.not49, label %._crit_edge, label %.lr.ph.preheader

.lr.ph.preheader:                                 ; preds = %22
  %27 = add i64 %25, 1
  br label %.lr.ph

.lr.ph:                                           ; preds = %.lr.ph.preheader, %.lr.ph
  %.02947 = phi i64 [ %34, %.lr.ph ], [ 0, %.lr.ph.preheader ]
  %.03046 = phi ptr [ %33, %.lr.ph ], [ %26, %.lr.ph.preheader ]
  %.03145 = phi i64 [ %.132, %.lr.ph ], [ 0, %.lr.ph.preheader ]
  %.03344 = phi i64 [ %.2, %.lr.ph ], [ %27, %.lr.ph.preheader ]
  %28 = load i8, ptr %.03046, align 1
  %29 = zext i8 %28 to i32
  %30 = tail call i32 @isspace(i32 noundef %29) #24
  %.not43 = icmp eq i32 %30, 0
  %31 = icmp ugt i64 %.03344, %25
  %32 = select i1 %.not43, i1 %31, i1 false
  %.2 = select i1 %32, i64 %.02947, i64 %.03344
  %.132 = select i1 %.not43, i64 %.02947, i64 %.03145
  %33 = getelementptr inbounds i8, ptr %.03046, i64 1
  %34 = add nuw i64 %.02947, 1
  %exitcond.not = icmp eq i64 %34, %25
  br i1 %exitcond.not, label %._crit_edge, label %.lr.ph, !llvm.loop !69

._crit_edge:                                      ; preds = %.lr.ph, %22
  %.033.lcssa = phi i64 [ 1, %22 ], [ %.2, %.lr.ph ]
  %.031.lcssa = phi i64 [ 0, %22 ], [ %.132, %.lr.ph ]
  %35 = icmp ugt i64 %.033.lcssa, %25
  %reass.sub = sub i64 %.031.lcssa, %.033.lcssa
  %36 = add i64 %reass.sub, 1
  %.3 = select i1 %35, i64 0, i64 %.033.lcssa
  %.028 = select i1 %35, i64 0, i64 %36
  %37 = load ptr, ptr %1, align 8
  call void @_ZNKSt7__cxx1112basic_stringIcSt11char_traitsIcESaIcEE6substrEmm(ptr dead_on_unwind nonnull writable sret(%"class.std::__cxx11::basic_string") align 8 %5, ptr noundef nonnull align 8 dereferenceable(32) %23, i64 noundef %.3, i64 noundef %.028)
  %38 = call { i64, ptr } @_ZNKSt7__cxx1112basic_stringIcSt11char_traitsIcESaIcEEcvSt17basic_string_viewIcS2_EEv(ptr noundef nonnull align 8 dereferenceable(32) %5) #20
  %39 = extractvalue { i64, ptr } %38, 0
  %40 = extractvalue { i64, ptr } %38, 1
  invoke void @_ZN10cmMakefile13AddDefinitionERKNSt7__cxx1112basic_stringIcSt11char_traitsIcESaIcEEESt17basic_string_viewIcS3_E(ptr noundef nonnull align 8 dereferenceable(3520) %37, ptr noundef nonnull align 8 dereferenceable(32) %24, i64 %39, ptr %40)
          to label %41 unwind label %42

41:                                               ; preds = %._crit_edge
  call void @_ZNSt7__cxx1112basic_stringIcSt11char_traitsIcESaIcEED1Ev(ptr noundef nonnull align 8 dereferenceable(32) %5) #20
  br label %44

42:                                               ; preds = %._crit_edge
  %43 = landingpad { ptr, i32 }
          cleanup
  call void @_ZNSt7__cxx1112basic_stringIcSt11char_traitsIcESaIcEED1Ev(ptr noundef nonnull align 8 dereferenceable(32) %5) #20
  br label %45

44:                                               ; preds = %41, %_ZN17cmExecutionStatus8SetErrorERKNSt7__cxx1112basic_stringIcSt11char_traitsIcESaIcEEE.exit
  ret i1 %.not

45:                                               ; preds = %42, %.body
  %.pn.pn = phi { ptr, i32 } [ %.pn, %.body ], [ %43, %42 ]
  resume { ptr, i32 } %.pn.pn
}